; Function Attrs: null_pointer_is_valid sspstrong uwtable
define void @frame_data_destroy(ptr noundef captures(none) %0) local_unnamed_addr #0 {
  %2 = getelementptr inbounds nuw i8, ptr %0, i64 32
  %3 = load ptr, ptr %2, align 8
  %.not = icmp eq ptr %3, null
  br i1 %.not, label %5, label %4

4:                                                ; preds = %1
  tail call void @g_slist_free(ptr noundef nonnull %3)
  store ptr null, ptr %2, align 8
  br label %5

5:                                                ; preds = %4, %1
  %6 = getelementptr inbounds nuw i8, ptr %0, i64 40
  %7 = load ptr, ptr %6, align 8
  %.not7 = icmp eq ptr %7, null
  br i1 %.not7, label %9, label %8

8:                                                ; preds = %5
  tail call void @g_hash_table_destroy(ptr noundef nonnull %7)
  store ptr null, ptr %6, align 8
  br label %9

9:                                                ; preds = %8, %5
  ret void
}